; Function Attrs: nounwind uwtable
define internal range(i32 1, 4) i32 @f_seek(ptr noundef %0) #0 {
  %2 = tail call ptr @luaL_checkudata(ptr noundef %0, i32 noundef 1, ptr noundef nonnull @.str.5) #9
  %3 = load ptr, ptr %2, align 8, !tbaa !4
  %4 = icmp eq ptr %3, null
  br i1 %4, label %5, label %tofile.exit

5:                                                ; preds = %1
  %6 = tail call i32 (ptr, ptr, ...) @luaL_error(ptr noundef %0, ptr noundef nonnull @.str.16) #9
  %.pre.i = load ptr, ptr %2, align 8, !tbaa !4
  br label %tofile.exit

tofile.exit:                                      ; preds = %1, %5
  %7 = phi ptr [ %.pre.i, %5 ], [ %3, %1 ]
  %8 = tail call i32 @luaL_checkoption(ptr noundef %0, i32 noundef 2, ptr noundef nonnull @.str.26, ptr noundef nonnull @f_seek.modenames) #9
  %9 = tail call i64 @luaL_optinteger(ptr noundef %0, i32 noundef 3, i64 noundef 0) #9
  %10 = sext i32 %8 to i64
  %11 = getelementptr inbounds [3 x i32], ptr @f_seek.mode, i64 0, i64 %10
  %12 = load i32, ptr %11, align 4, !tbaa !9
  %13 = tail call i32 @fseek(ptr noundef %7, i64 noundef %9, i32 noundef %12)
  %.not = icmp eq i32 %13, 0
  br i1 %.not, label %20, label %14

14:                                               ; preds = %tofile.exit
  %15 = tail call ptr @__errno_location() #10
  %16 = load i32, ptr %15, align 4, !tbaa !9
  tail call void @lua_pushnil(ptr noundef %0) #9
  %17 = tail call ptr @strerror(i32 noundef %16) #9
  %18 = tail call ptr (ptr, ptr, ...) @lua_pushfstring(ptr noundef %0, ptr noundef nonnull @.str.19, ptr noundef %17) #9
  %19 = sext i32 %16 to i64
  br label %22

20:                                               ; preds = %tofile.exit
  %21 = tail call i64 @ftell(ptr noundef %7)
  br label %22

22:                                               ; preds = %20, %14
  %.sink = phi i64 [ %21, %20 ], [ %19, %14 ]
  %.0 = phi i32 [ 1, %20 ], [ 3, %14 ]
  tail call void @lua_pushinteger(ptr noundef %0, i64 noundef %.sink) #9
  ret i32 %.0
}